target datalayout = "e-m:e-p270:32:32-p271:32:32-p272:64:64-i64:64-i128:128-f80:128-n8:16:32:64-S128"
target triple = "x86_64-pc-linux-gnu"

%class.dependent_expr_state = type { ptr, i32, i8, i32, i32, i32, %class.ast_mark, %class.ref_vector, %class.trail_stack }
%class.ast_mark = type { ptr, %class.obj_mark, %class.obj_mark.324 }
%class.obj_mark = type { [8 x i8], %class.bit_vector }
%class.bit_vector = type { i32, i32, ptr }
%class.obj_mark.324 = type { [8 x i8], %class.bit_vector }
%class.ref_vector = type { %class.ref_vector_core }
%class.ref_vector_core = type { %class.ref_manager_wrapper, %class.ptr_vector.325 }
%class.ref_manager_wrapper = type { ptr }
%class.ptr_vector.325 = type { %class.vector.326 }
%class.vector.326 = type { ptr }
%class.trail_stack = type { %class.ptr_vector.327, %class.svector.313, %class.region }
%class.ptr_vector.327 = type { %class.vector.328 }
%class.vector.328 = type { ptr }
%class.svector.313 = type { %class.vector.314 }
%class.vector.314 = type { ptr }
%class.region = type { ptr, ptr, ptr, ptr, ptr }
%class.dependent_expr_simplifier = type { ptr, ptr, ptr, ptr }

; Function Attrs: mustprogress nounwind uwtable
define linkonce_odr hidden void @_ZN25dependent_expr_simplifierC2ER11ast_managerR20dependent_expr_state(ptr noundef nonnull align 8 dereferenceable(32) %0, ptr noundef nonnull align 8 dereferenceable(976) %1, ptr noundef nonnull align 8 dereferenceable(160) %2) unnamed_addr #7 comdat align 2 {
  %4 = alloca ptr, align 8
  %5 = alloca ptr, align 8
  %6 = alloca ptr, align 8
  store ptr %0, ptr %4, align 8, !tbaa !185
  store ptr %1, ptr %5, align 8, !tbaa !33
  store ptr %2, ptr %6, align 8, !tbaa !98
  %7 = load ptr, ptr %4, align 8
  store ptr getelementptr inbounds inrange(-16, 88) ({ [13 x ptr] }, ptr @_ZTV25dependent_expr_simplifier, i32 0, i32 0, i32 2), ptr %7, align 8, !tbaa !42
  %8 = getelementptr inbounds nuw %class.dependent_expr_simplifier, ptr %7, i32 0, i32 1
  %9 = load ptr, ptr %5, align 8, !tbaa !33
  store ptr %9, ptr %8, align 8, !tbaa !33
  %10 = getelementptr inbounds nuw %class.dependent_expr_simplifier, ptr %7, i32 0, i32 2
  %11 = load ptr, ptr %6, align 8, !tbaa !98
  store ptr %11, ptr %10, align 8, !tbaa !98
  %12 = getelementptr inbounds nuw %class.dependent_expr_simplifier, ptr %7, i32 0, i32 3
  %13 = load ptr, ptr %6, align 8, !tbaa !98
  %14 = getelementptr inbounds nuw %class.dependent_expr_state, ptr %13, i32 0, i32 8
  store ptr %14, ptr %12, align 8, !tbaa !108
  ret void
}

; Function Attrs: mustprogress nounwind uwtable
define linkonce_odr hidden void @_ZN27refine_inj_axiom_simplifierC2ER11ast_managerRK10params_refR20dependent_expr_state(ptr noundef nonnull align 8 dereferenceable(32) %0, ptr noundef nonnull align 8 dereferenceable(976) %1, ptr noundef nonnull align 8 dereferenceable(8) %2, ptr noundef nonnull align 8 dereferenceable(160) %3) unnamed_addr #7 comdat align 2 {
  %5 = alloca ptr, align 8
  %6 = alloca ptr, align 8
  %7 = alloca ptr, align 8
  %8 = alloca ptr, align 8
  store ptr %0, ptr %5, align 8, !tbaa !853
  store ptr %1, ptr %6, align 8, !tbaa !33
  store ptr %2, ptr %7, align 8, !tbaa !35
  store ptr %3, ptr %8, align 8, !tbaa !98
  %9 = load ptr, ptr %5, align 8
  %10 = load ptr, ptr %6, align 8, !tbaa !33
  %11 = load ptr, ptr %8, align 8, !tbaa !98
  call void @_ZN25dependent_expr_simplifierC2ER11ast_managerR20dependent_expr_state(ptr noundef nonnull align 8 dereferenceable(32) %9, ptr noundef nonnull align 8 dereferenceable(976) %10, ptr noundef nonnull align 8 dereferenceable(160) %11)
  store ptr getelementptr inbounds inrange(-16, 88) ({ [13 x ptr] }, ptr @_ZTV27refine_inj_axiom_simplifier, i32 0, i32 0, i32 2), ptr %9, align 8, !tbaa !42
  ret void
}

; Function Attrs: inlinehint mustprogress uwtable
define internal noundef ptr @"_ZZ15install_tacticsR14tactic_managerENK3$_9clI11ast_managerK10params_ref20dependent_expr_stateEEP25dependent_expr_simplifierRT_RT0_RT1_"(ptr noundef nonnull align 1 dereferenceable(1) %0, ptr noundef nonnull align 8 dereferenceable(976) %1, ptr noundef nonnull align 8 dereferenceable(8) %2, ptr noundef nonnull align 8 dereferenceable(160) %3) #8 align 2 {
  %5 = alloca ptr, align 8
  %6 = alloca ptr, align 8
  %7 = alloca ptr, align 8
  %8 = alloca ptr, align 8
  store ptr %0, ptr %5, align 8, !tbaa !9
  store ptr %1, ptr %6, align 8, !tbaa !33
  store ptr %2, ptr %7, align 8, !tbaa !35
  store ptr %3, ptr %8, align 8, !tbaa !98
  %9 = call noalias noundef ptr @_ZN6memory8allocateEm(i64 noundef 32)
  %10 = load ptr, ptr %6, align 8, !tbaa !33
  %11 = load ptr, ptr %7, align 8, !tbaa !35
  %12 = load ptr, ptr %8, align 8, !tbaa !98
  call void @_ZN27refine_inj_axiom_simplifierC2ER11ast_managerRK10params_refR20dependent_expr_state(ptr noundef nonnull align 8 dereferenceable(32) %9, ptr noundef nonnull align 8 dereferenceable(976) %10, ptr noundef nonnull align 8 dereferenceable(8) %11, ptr noundef nonnull align 8 dereferenceable(160) %12)
  ret ptr %9
}

; Function Attrs: mustprogress nounwind uwtable
define linkonce_odr hidden noundef ptr @_ZNKSt9_Any_data9_M_accessEv(ptr noundef nonnull align 8 dereferenceable(16) %0) #7 comdat align 2 {
  %2 = alloca ptr, align 8
  store ptr %0, ptr %2, align 8, !tbaa !764
  %3 = load ptr, ptr %2, align 8
  %4 = getelementptr inbounds [16 x i8], ptr %3, i64 0, i64 0
  ret ptr %4
}

; Function Attrs: mustprogress uwtable
define internal noundef ptr @"_ZSt13__invoke_implIP25dependent_expr_simplifierRZ15install_tacticsR14tactic_managerE3$_9JR11ast_managerRK10params_refR20dependent_expr_stateEET_St14__invoke_otherOT0_DpOT1_"(ptr noundef nonnull align 1 dereferenceable(1) %0, ptr noundef nonnull align 8 dereferenceable(976) %1, ptr noundef nonnull align 8 dereferenceable(8) %2, ptr noundef nonnull align 8 dereferenceable(160) %3) #4 {
  %5 = alloca ptr, align 8
  %6 = alloca ptr, align 8
  %7 = alloca ptr, align 8
  %8 = alloca ptr, align 8
  store ptr %0, ptr %5, align 8, !tbaa !9
  store ptr %1, ptr %6, align 8, !tbaa !33
  store ptr %2, ptr %7, align 8, !tbaa !35
  store ptr %3, ptr %8, align 8, !tbaa !98
  %9 = load ptr, ptr %5, align 8, !tbaa !9
  %10 = load ptr, ptr %6, align 8, !tbaa !33
  %11 = load ptr, ptr %7, align 8, !tbaa !35
  %12 = load ptr, ptr %8, align 8, !tbaa !98
  %13 = call noundef ptr @"_ZZ15install_tacticsR14tactic_managerENK3$_9clI11ast_managerK10params_ref20dependent_expr_stateEEP25dependent_expr_simplifierRT_RT0_RT1_"(ptr noundef nonnull align 1 dereferenceable(1) %9, ptr noundef nonnull align 8 dereferenceable(976) %10, ptr noundef nonnull align 8 dereferenceable(8) %11, ptr noundef nonnull align 8 dereferenceable(160) %12)
  ret ptr %13
}

; Function Attrs: mustprogress nounwind uwtable
define internal noundef nonnull align 1 dereferenceable(1) ptr @"_ZNKSt9_Any_data9_M_accessIZ15install_tacticsR14tactic_managerE3$_9EERKT_v"(ptr noundef nonnull align 8 dereferenceable(16) %0) #7 align 2 {
  %2 = alloca ptr, align 8
  store ptr %0, ptr %2, align 8, !tbaa !764
  %3 = load ptr, ptr %2, align 8
  %4 = call noundef ptr @_ZNKSt9_Any_data9_M_accessEv(ptr noundef nonnull align 8 dereferenceable(16) %3) #3
  ret ptr %4
}

; Function Attrs: mustprogress uwtable
define internal noundef ptr @"_ZSt10__invoke_rIP25dependent_expr_simplifierRZ15install_tacticsR14tactic_managerE3$_9JR11ast_managerRK10params_refR20dependent_expr_stateEENSt9enable_ifIX16is_invocable_r_vIT_T0_DpT1_EESE_E4typeEOSF_DpOSG_"(ptr noundef nonnull align 1 dereferenceable(1) %0, ptr noundef nonnull align 8 dereferenceable(976) %1, ptr noundef nonnull align 8 dereferenceable(8) %2, ptr noundef nonnull align 8 dereferenceable(160) %3) #4 {
  %5 = alloca ptr, align 8
  %6 = alloca ptr, align 8
  %7 = alloca ptr, align 8
  %8 = alloca ptr, align 8
  store ptr %0, ptr %5, align 8, !tbaa !9
  store ptr %1, ptr %6, align 8, !tbaa !33
  store ptr %2, ptr %7, align 8, !tbaa !35
  store ptr %3, ptr %8, align 8, !tbaa !98
  %9 = load ptr, ptr %5, align 8, !tbaa !9
  %10 = load ptr, ptr %6, align 8, !tbaa !33
  %11 = load ptr, ptr %7, align 8, !tbaa !35
  %12 = load ptr, ptr %8, align 8, !tbaa !98
  %13 = call noundef ptr @"_ZSt13__invoke_implIP25dependent_expr_simplifierRZ15install_tacticsR14tactic_managerE3$_9JR11ast_managerRK10params_refR20dependent_expr_stateEET_St14__invoke_otherOT0_DpOT1_"(ptr noundef nonnull align 1 dereferenceable(1) %9, ptr noundef nonnull align 8 dereferenceable(976) %10, ptr noundef nonnull align 8 dereferenceable(8) %11, ptr noundef nonnull align 8 dereferenceable(160) %12)
  ret ptr %13
}

; Function Attrs: mustprogress nounwind uwtable
define internal noundef ptr @"_ZNSt14_Function_base13_Base_managerIZ15install_tacticsR14tactic_managerE3$_9E14_M_get_pointerERKSt9_Any_data"(ptr noundef nonnull align 8 dereferenceable(16) %0) #7 align 2 {
  %2 = alloca ptr, align 8
  %3 = alloca ptr, align 8
  store ptr %0, ptr %2, align 8, !tbaa !764
  call void @llvm.lifetime.start.p0(i64 8, ptr %3) #3
  %4 = load ptr, ptr %2, align 8, !tbaa !764
  %5 = call noundef nonnull align 1 dereferenceable(1) ptr @"_ZNKSt9_Any_data9_M_accessIZ15install_tacticsR14tactic_managerE3$_9EERKT_v"(ptr noundef nonnull align 8 dereferenceable(16) %4) #3
  store ptr %5, ptr %3, align 8, !tbaa !9
  %6 = load ptr, ptr %3, align 8, !tbaa !9
  call void @llvm.lifetime.end.p0(i64 8, ptr %3) #3
  ret ptr %6
}

; Function Attrs: mustprogress uwtable
define internal noundef ptr @"_ZNSt17_Function_handlerIFP25dependent_expr_simplifierR11ast_managerRK10params_refR20dependent_expr_stateEZ15install_tacticsR14tactic_managerE3$_9E9_M_invokeERKSt9_Any_dataS3_S6_S8_"(ptr noundef nonnull align 8 dereferenceable(16) %0, ptr noundef nonnull align 8 dereferenceable(976) %1, ptr noundef nonnull align 8 dereferenceable(8) %2, ptr noundef nonnull align 8 dereferenceable(160) %3) #4 align 2 {
  %5 = alloca ptr, align 8
  %6 = alloca ptr, align 8
  %7 = alloca ptr, align 8
  %8 = alloca ptr, align 8
  store ptr %0, ptr %5, align 8, !tbaa !764
  store ptr %1, ptr %6, align 8, !tbaa !33
  store ptr %2, ptr %7, align 8, !tbaa !35
  store ptr %3, ptr %8, align 8, !tbaa !98
  %9 = load ptr, ptr %5, align 8, !tbaa !764
  %10 = call noundef ptr @"_ZNSt14_Function_base13_Base_managerIZ15install_tacticsR14tactic_managerE3$_9E14_M_get_pointerERKSt9_Any_data"(ptr noundef nonnull align 8 dereferenceable(16) %9) #3
  %11 = load ptr, ptr %6, align 8, !tbaa !33
  %12 = load ptr, ptr %7, align 8, !tbaa !35
  %13 = load ptr, ptr %8, align 8, !tbaa !98
  %14 = call noundef ptr @"_ZSt10__invoke_rIP25dependent_expr_simplifierRZ15install_tacticsR14tactic_managerE3$_9JR11ast_managerRK10params_refR20dependent_expr_stateEENSt9enable_ifIX16is_invocable_r_vIT_T0_DpT1_EESE_E4typeEOSF_DpOSG_"(ptr noundef nonnull align 1 dereferenceable(1) %10, ptr noundef nonnull align 8 dereferenceable(976) %11, ptr noundef nonnull align 8 dereferenceable(8) %12, ptr noundef nonnull align 8 dereferenceable(160) %13)
  ret ptr %14
}