; Function Attrs: mustprogress uwtable
define internal noalias noundef ptr @"_ZNSt17_Function_handlerIFP25dependent_expr_simplifierR11ast_managerRK10params_refR20dependent_expr_stateEZ15install_tacticsR14tactic_managerE3$_9E9_M_invokeERKSt9_Any_dataS3_S6_S8_"(ptr nonnull readnone align 8 captures(none) %0, ptr noundef nonnull align 8 dereferenceable(976) %1, ptr nonnull readnone align 8 captures(none) %2, ptr noundef nonnull align 8 dereferenceable(160) %3) #3 align 2 {
  %5 = tail call noalias noundef ptr @_ZN6memory8allocateEm(i64 noundef 32)
  %6 = getelementptr inbounds nuw i8, ptr %5, i64 8
  store ptr %1, ptr %6, align 8, !tbaa !59
  %7 = getelementptr inbounds nuw i8, ptr %5, i64 16
  store ptr %3, ptr %7, align 8, !tbaa !304
  %8 = getelementptr inbounds nuw i8, ptr %5, i64 24
  %9 = getelementptr inbounds nuw i8, ptr %3, i64 104
  store ptr %9, ptr %8, align 8, !tbaa !270
  store ptr getelementptr inbounds nuw inrange(-16, 88) (i8, ptr @_ZTV27refine_inj_axiom_simplifier, i64 16), ptr %5, align 8, !tbaa !22
  ret ptr %5
}